#include <math.h>
#include <stdio.h>
#include <stdlib.h>
#include <string.h>
#define LEN 100
#define ASCII 100
#define MAX_N 100
#define MAX_N 100
#define L 100
#define MAX 100
#define ASC 100
#define null 0
#define Len 100
#define M 100
#define SUM 100
#define NUMBER 100
#define SIZE 100
#define N 100
#define Max 100
#define X 100
#define Y 100
#define A 100
#define MAXN 100
#define MAXSIZE 100
int main()
{
    int i,j,n,k,c,big=0;
    int num[30]={0},a[1000];
    char name[1000][20];
    scanf("%d",&n);
    for(i=0;i<n;i++)
    {
        scanf("%d %s",&a[i],name[i]);
    }
    for(k=0;k<26;k++)
    {
      for(i=0;i<n;i++)
      {
        for(j=0;j<strlen(name[i]);j++)
        {
            if(name[i][j]==k+'A')
               num[k]=num[k]+1;
        }
      }
    }
    for(i=0;i<26;i++)
    {
        if(big<num[i])
        {big=num[i];
        c=i+'A';
        }
    }
    printf("%c\n",c);
    printf("%d\n",big);
   /* for(i=0;i<n;i++)
    {
        if(num[i]==big)
          printf("%d\n",big);
    }*/
    for(i=0;i<n;i++)
    {
        for(j=0;j<strlen(name[i]);j++)
        {
            if(name[i][j]==c)
            printf("%d\n",a[i]);
        }
    }
    return 0;
}
