; ModuleID = '2/338.c'
source_filename = "2/338.c"
target datalayout = "e-m:e-p270:32:32-p271:32:32-p272:64:64-i64:64-f80:128-n8:16:32:64-S128"
target triple = "x86_64-pc-linux-gnu"

@.str = private unnamed_addr constant [3 x i8] c"%d\00", align 1
@.str.1 = private unnamed_addr constant [6 x i8] c"%d %s\00", align 1
@.str.2 = private unnamed_addr constant [4 x i8] c"%c\0A\00", align 1
@.str.3 = private unnamed_addr constant [4 x i8] c"%d\0A\00", align 1

; Function Attrs: noinline nounwind uwtable
define dso_local i32 @main() #0 {
  %1 = alloca i32, align 4
  %2 = alloca i32, align 4
  %3 = alloca i32, align 4
  %4 = alloca i32, align 4
  %5 = alloca i32, align 4
  %6 = alloca i32, align 4
  %7 = alloca i32, align 4
  %8 = alloca [30 x i32], align 16
  %9 = alloca [1000 x i32], align 16
  %10 = alloca [1000 x [20 x i8]], align 16
  store i32 0, i32* %1, align 4
  store i32 0, i32* %7, align 4
  %11 = bitcast [30 x i32]* %8 to i8*
  call void @llvm.memset.p0i8.i64(i8* align 16 %11, i8 0, i64 120, i1 false)
  %12 = call i32 (i8*, ...) @__isoc99_scanf(i8* getelementptr inbounds ([3 x i8], [3 x i8]* @.str, i64 0, i64 0), i32* %4)
  store i32 0, i32* %2, align 4
  br label %13

13:                                               ; preds = %26, %0
  %14 = load i32, i32* %2, align 4
  %15 = load i32, i32* %4, align 4
  %16 = icmp slt i32 %14, %15
  br i1 %16, label %17, label %29

17:                                               ; preds = %13
  %18 = load i32, i32* %2, align 4
  %19 = sext i32 %18 to i64
  %20 = getelementptr inbounds [1000 x i32], [1000 x i32]* %9, i64 0, i64 %19
  %21 = load i32, i32* %2, align 4
  %22 = sext i32 %21 to i64
  %23 = getelementptr inbounds [1000 x [20 x i8]], [1000 x [20 x i8]]* %10, i64 0, i64 %22
  %24 = getelementptr inbounds [20 x i8], [20 x i8]* %23, i64 0, i64 0
  %25 = call i32 (i8*, ...) @__isoc99_scanf(i8* getelementptr inbounds ([6 x i8], [6 x i8]* @.str.1, i64 0, i64 0), i32* %20, i8* %24)
  br label %26

26:                                               ; preds = %17
  %27 = load i32, i32* %2, align 4
  %28 = add nsw i32 %27, 1
  store i32 %28, i32* %2, align 4
  br label %13

29:                                               ; preds = %13
  store i32 0, i32* %5, align 4
  br label %30

30:                                               ; preds = %78, %29
  %31 = load i32, i32* %5, align 4
  %32 = icmp slt i32 %31, 26
  br i1 %32, label %33, label %81

33:                                               ; preds = %30
  store i32 0, i32* %2, align 4
  br label %34

34:                                               ; preds = %74, %33
  %35 = load i32, i32* %2, align 4
  %36 = load i32, i32* %4, align 4
  %37 = icmp slt i32 %35, %36
  br i1 %37, label %38, label %77

38:                                               ; preds = %34
  store i32 0, i32* %3, align 4
  br label %39

39:                                               ; preds = %70, %38
  %40 = load i32, i32* %3, align 4
  %41 = sext i32 %40 to i64
  %42 = load i32, i32* %2, align 4
  %43 = sext i32 %42 to i64
  %44 = getelementptr inbounds [1000 x [20 x i8]], [1000 x [20 x i8]]* %10, i64 0, i64 %43
  %45 = getelementptr inbounds [20 x i8], [20 x i8]* %44, i64 0, i64 0
  %46 = call i64 @strlen(i8* %45) #4
  %47 = icmp ult i64 %41, %46
  br i1 %47, label %48, label %73

48:                                               ; preds = %39
  %49 = load i32, i32* %2, align 4
  %50 = sext i32 %49 to i64
  %51 = getelementptr inbounds [1000 x [20 x i8]], [1000 x [20 x i8]]* %10, i64 0, i64 %50
  %52 = load i32, i32* %3, align 4
  %53 = sext i32 %52 to i64
  %54 = getelementptr inbounds [20 x i8], [20 x i8]* %51, i64 0, i64 %53
  %55 = load i8, i8* %54, align 1
  %56 = sext i8 %55 to i32
  %57 = load i32, i32* %5, align 4
  %58 = add nsw i32 %57, 65
  %59 = icmp eq i32 %56, %58
  br i1 %59, label %60, label %69

60:                                               ; preds = %48
  %61 = load i32, i32* %5, align 4
  %62 = sext i32 %61 to i64
  %63 = getelementptr inbounds [30 x i32], [30 x i32]* %8, i64 0, i64 %62
  %64 = load i32, i32* %63, align 4
  %65 = add nsw i32 %64, 1
  %66 = load i32, i32* %5, align 4
  %67 = sext i32 %66 to i64
  %68 = getelementptr inbounds [30 x i32], [30 x i32]* %8, i64 0, i64 %67
  store i32 %65, i32* %68, align 4
  br label %69

69:                                               ; preds = %60, %48
  br label %70

70:                                               ; preds = %69
  %71 = load i32, i32* %3, align 4
  %72 = add nsw i32 %71, 1
  store i32 %72, i32* %3, align 4
  br label %39

73:                                               ; preds = %39
  br label %74

74:                                               ; preds = %73
  %75 = load i32, i32* %2, align 4
  %76 = add nsw i32 %75, 1
  store i32 %76, i32* %2, align 4
  br label %34

77:                                               ; preds = %34
  br label %78

78:                                               ; preds = %77
  %79 = load i32, i32* %5, align 4
  %80 = add nsw i32 %79, 1
  store i32 %80, i32* %5, align 4
  br label %30

81:                                               ; preds = %30
  store i32 0, i32* %2, align 4
  br label %82

82:                                               ; preds = %100, %81
  %83 = load i32, i32* %2, align 4
  %84 = icmp slt i32 %83, 26
  br i1 %84, label %85, label %103

85:                                               ; preds = %82
  %86 = load i32, i32* %7, align 4
  %87 = load i32, i32* %2, align 4
  %88 = sext i32 %87 to i64
  %89 = getelementptr inbounds [30 x i32], [30 x i32]* %8, i64 0, i64 %88
  %90 = load i32, i32* %89, align 4
  %91 = icmp slt i32 %86, %90
  br i1 %91, label %92, label %99

92:                                               ; preds = %85
  %93 = load i32, i32* %2, align 4
  %94 = sext i32 %93 to i64
  %95 = getelementptr inbounds [30 x i32], [30 x i32]* %8, i64 0, i64 %94
  %96 = load i32, i32* %95, align 4
  store i32 %96, i32* %7, align 4
  %97 = load i32, i32* %2, align 4
  %98 = add nsw i32 %97, 65
  store i32 %98, i32* %6, align 4
  br label %99

99:                                               ; preds = %92, %85
  br label %100

100:                                              ; preds = %99
  %101 = load i32, i32* %2, align 4
  %102 = add nsw i32 %101, 1
  store i32 %102, i32* %2, align 4
  br label %82

103:                                              ; preds = %82
  %104 = load i32, i32* %6, align 4
  %105 = call i32 (i8*, ...) @printf(i8* getelementptr inbounds ([4 x i8], [4 x i8]* @.str.2, i64 0, i64 0), i32 %104)
  %106 = load i32, i32* %7, align 4
  %107 = call i32 (i8*, ...) @printf(i8* getelementptr inbounds ([4 x i8], [4 x i8]* @.str.3, i64 0, i64 0), i32 %106)
  store i32 0, i32* %2, align 4
  br label %108

108:                                              ; preds = %144, %103
  %109 = load i32, i32* %2, align 4
  %110 = load i32, i32* %4, align 4
  %111 = icmp slt i32 %109, %110
  br i1 %111, label %112, label %147

112:                                              ; preds = %108
  store i32 0, i32* %3, align 4
  br label %113

113:                                              ; preds = %140, %112
  %114 = load i32, i32* %3, align 4
  %115 = sext i32 %114 to i64
  %116 = load i32, i32* %2, align 4
  %117 = sext i32 %116 to i64
  %118 = getelementptr inbounds [1000 x [20 x i8]], [1000 x [20 x i8]]* %10, i64 0, i64 %117
  %119 = getelementptr inbounds [20 x i8], [20 x i8]* %118, i64 0, i64 0
  %120 = call i64 @strlen(i8* %119) #4
  %121 = icmp ult i64 %115, %120
  br i1 %121, label %122, label %143

122:                                              ; preds = %113
  %123 = load i32, i32* %2, align 4
  %124 = sext i32 %123 to i64
  %125 = getelementptr inbounds [1000 x [20 x i8]], [1000 x [20 x i8]]* %10, i64 0, i64 %124
  %126 = load i32, i32* %3, align 4
  %127 = sext i32 %126 to i64
  %128 = getelementptr inbounds [20 x i8], [20 x i8]* %125, i64 0, i64 %127
  %129 = load i8, i8* %128, align 1
  %130 = sext i8 %129 to i32
  %131 = load i32, i32* %6, align 4
  %132 = icmp eq i32 %130, %131
  br i1 %132, label %133, label %139

133:                                              ; preds = %122
  %134 = load i32, i32* %2, align 4
  %135 = sext i32 %134 to i64
  %136 = getelementptr inbounds [1000 x i32], [1000 x i32]* %9, i64 0, i64 %135
  %137 = load i32, i32* %136, align 4
  %138 = call i32 (i8*, ...) @printf(i8* getelementptr inbounds ([4 x i8], [4 x i8]* @.str.3, i64 0, i64 0), i32 %137)
  br label %139

139:                                              ; preds = %133, %122
  br label %140

140:                                              ; preds = %139
  %141 = load i32, i32* %3, align 4
  %142 = add nsw i32 %141, 1
  store i32 %142, i32* %3, align 4
  br label %113

143:                                              ; preds = %113
  br label %144

144:                                              ; preds = %143
  %145 = load i32, i32* %2, align 4
  %146 = add nsw i32 %145, 1
  store i32 %146, i32* %2, align 4
  br label %108

147:                                              ; preds = %108
  ret i32 0
}

; Function Attrs: argmemonly nounwind willreturn
declare void @llvm.memset.p0i8.i64(i8* nocapture writeonly, i8, i64, i1 immarg) #1

declare dso_local i32 @__isoc99_scanf(i8*, ...) #2

; Function Attrs: nounwind readonly
declare dso_local i64 @strlen(i8*) #3

declare dso_local i32 @printf(i8*, ...) #2


!llvm.module.flags = !{!0}
!llvm.ident = !{!1}

!0 = !{i32 1, !"wchar_size", i32 4}
!1 = !{!"clang version 10.0.0-4ubuntu1 "}
